target datalayout = "e-m:e-p270:32:32-p271:32:32-p272:64:64-i64:64-i128:128-f80:128-n8:16:32:64-S128"
target triple = "x86_64-pc-linux-gnu"

%"class.base::(anonymous namespace)::SampleCountPickleIterator" = type <{ %"class.base::SampleCountIterator", ptr, i32, i32, i32, i8, [3 x i8] }>
%"class.base::SampleCountIterator" = type { ptr }

; Function Attrs: mustprogress uwtable
define internal void @_ZN4base12_GLOBAL__N_125SampleCountPickleIterator4NextEv(ptr noundef nonnull align 8 dereferenceable(29) %0) unnamed_addr #0 align 2 {
  %2 = alloca ptr, align 8
  store ptr %0, ptr %2, align 8, !tbaa !34
  %3 = load ptr, ptr %2, align 8
  %4 = getelementptr inbounds nuw %"class.base::(anonymous namespace)::SampleCountPickleIterator", ptr %3, i32 0, i32 1
  %5 = load ptr, ptr %4, align 8, !tbaa !36
  %6 = getelementptr inbounds nuw %"class.base::(anonymous namespace)::SampleCountPickleIterator", ptr %3, i32 0, i32 2
  %7 = call noundef zeroext i1 @_ZN4base14PickleIterator7ReadIntEPi(ptr noundef nonnull align 8 dereferenceable(24) %5, ptr noundef %6)
  br i1 %7, label %8, label %18

8:                                                ; preds = %1
  %9 = getelementptr inbounds nuw %"class.base::(anonymous namespace)::SampleCountPickleIterator", ptr %3, i32 0, i32 1
  %10 = load ptr, ptr %9, align 8, !tbaa !36
  %11 = getelementptr inbounds nuw %"class.base::(anonymous namespace)::SampleCountPickleIterator", ptr %3, i32 0, i32 3
  %12 = call noundef zeroext i1 @_ZN4base14PickleIterator7ReadIntEPi(ptr noundef nonnull align 8 dereferenceable(24) %10, ptr noundef %11)
  br i1 %12, label %13, label %18

13:                                               ; preds = %8
  %14 = getelementptr inbounds nuw %"class.base::(anonymous namespace)::SampleCountPickleIterator", ptr %3, i32 0, i32 1
  %15 = load ptr, ptr %14, align 8, !tbaa !36
  %16 = getelementptr inbounds nuw %"class.base::(anonymous namespace)::SampleCountPickleIterator", ptr %3, i32 0, i32 4
  %17 = call noundef zeroext i1 @_ZN4base14PickleIterator7ReadIntEPi(ptr noundef nonnull align 8 dereferenceable(24) %15, ptr noundef %16)
  br i1 %17, label %20, label %18

18:                                               ; preds = %13, %8, %1
  %19 = getelementptr inbounds nuw %"class.base::(anonymous namespace)::SampleCountPickleIterator", ptr %3, i32 0, i32 5
  store i8 1, ptr %19, align 4, !tbaa !39
  br label %20

20:                                               ; preds = %18, %13
  ret void
}