; Function Attrs: mustprogress uwtable
define internal void @_ZN4base12_GLOBAL__N_125SampleCountPickleIterator4NextEv(ptr noundef nonnull align 8 dereferenceable(29) %0) unnamed_addr #5 align 2 {
  %2 = getelementptr inbounds nuw i8, ptr %0, i64 8
  %3 = load ptr, ptr %2, align 8, !tbaa !19
  %4 = getelementptr inbounds nuw i8, ptr %0, i64 16
  %5 = tail call noundef zeroext i1 @_ZN4base14PickleIterator7ReadIntEPi(ptr noundef nonnull align 8 dereferenceable(24) %3, ptr noundef nonnull %4)
  br i1 %5, label %6, label %14

6:                                                ; preds = %1
  %7 = load ptr, ptr %2, align 8, !tbaa !19
  %8 = getelementptr inbounds nuw i8, ptr %0, i64 20
  %9 = tail call noundef zeroext i1 @_ZN4base14PickleIterator7ReadIntEPi(ptr noundef nonnull align 8 dereferenceable(24) %7, ptr noundef nonnull %8)
  br i1 %9, label %10, label %14

10:                                               ; preds = %6
  %11 = load ptr, ptr %2, align 8, !tbaa !19
  %12 = getelementptr inbounds nuw i8, ptr %0, i64 24
  %13 = tail call noundef zeroext i1 @_ZN4base14PickleIterator7ReadIntEPi(ptr noundef nonnull align 8 dereferenceable(24) %11, ptr noundef nonnull %12)
  br i1 %13, label %16, label %14

14:                                               ; preds = %10, %6, %1
  %15 = getelementptr inbounds nuw i8, ptr %0, i64 28
  store i8 1, ptr %15, align 4, !tbaa !24
  br label %16

16:                                               ; preds = %14, %10
  ret void
}